Certificate Request:
    Data:
        Version: 1 (0x0)
        Subject: C = US, ST = CA, L = Pomona, O = CPP, OU = Student, CN = Brad, emailAddress = bradjkim03@gmail.com
        Subject Public Key Info:
            Public Key Algorithm: rsaEncryption
                RSA Public-Key: (2048 bit)
                Modulus:
                    00:cd:62:88:36:f3:a0:84:71:f9:e6:82:5f:a3:f7:
                    96:10:f3:f3:7c:21:5d:e5:cf:33:ec:a0:76:49:9b:
                    4d:14:ae:78:d0:20:f2:32:d0:a6:85:df:c1:a9:c4:
                    ed:ed:3a:c7:ce:0f:50:e4:4c:ba:a8:fb:65:f8:0c:
                    92:6b:18:45:3a:bd:4a:71:52:76:af:63:db:ed:2e:
                    4b:28:f6:80:29:cc:bf:7f:bb:23:47:0b:16:6a:d9:
                    60:ca:93:0f:2b:62:61:fa:b9:b3:0c:53:3a:f6:01:
                    ac:a7:8c:98:bf:08:7c:d8:57:33:3a:6a:1f:11:5b:
                    c8:66:1d:50:40:eb:f7:42:01:3d:f5:1c:a5:53:9a:
                    94:0a:df:f0:18:17:8d:fb:13:43:7e:85:72:3b:22:
                    cc:5d:74:f5:27:9c:77:d6:a0:17:d0:38:5d:cf:a1:
                    b4:74:85:7e:79:8d:56:47:94:90:33:1e:e5:b6:27:
                    1b:94:73:10:56:b7:73:8e:e2:ae:c5:89:35:df:1d:
                    6e:0f:0f:b4:57:5a:ab:44:74:a5:f8:7c:f1:68:00:
                    02:33:3f:7b:80:da:65:cd:8c:2f:ed:f0:c6:6e:dd:
                    63:60:6e:ec:4a:61:21:a2:ab:6f:2f:e7:33:c3:d0:
                    f6:9f:d8:63:d2:48:06:93:3f:ac:78:53:01:4b:66:
                    83:95
                Exponent: 65537 (0x10001)
        Attributes:
            challengePassword        :tmpPassword421
    Signature Algorithm: sha256WithRSAEncryption
         17:c4:a1:7e:a1:7e:5d:44:62:11:9f:e9:3f:be:8e:72:08:d9:
         ce:7e:ae:fd:c9:51:4a:89:af:8f:93:5e:eb:dc:d7:3e:96:72:
         80:9c:67:3f:57:c5:91:6c:d1:78:03:70:e7:b6:f7:98:8c:80:
         29:9f:b9:58:e8:20:b6:01:59:9c:f7:96:b7:59:f9:6c:ac:64:
         e3:ac:9f:5e:1e:7f:6e:6d:f1:8b:7a:e0:f9:44:3c:15:3f:13:
         21:f7:4a:75:24:73:dd:9f:ad:72:54:e0:34:d1:f2:74:67:e1:
         e6:ff:5b:db:ed:cb:6b:b2:f6:ac:b5:87:95:38:f0:1c:e2:22:
         7b:4a:46:e4:a2:3e:53:8e:cf:d3:c7:ad:6b:c8:9b:d6:54:6a:
         87:f4:a4:b2:bd:2b:4b:bc:ef:a0:53:d1:33:e9:cf:8c:82:77:
         ed:6f:83:40:89:b3:71:5f:4c:1f:33:2b:19:11:3c:88:c5:8f:
         a8:65:6e:a5:0a:a0:fc:a8:37:f1:6e:d2:71:71:ab:0e:e8:62:
         92:85:6e:0c:91:86:d8:2b:10:bc:ac:58:d1:e5:e6:30:79:8a:
         a7:50:8f:ac:24:5d:98:b9:b9:cf:1b:b2:bb:f2:78:6c:d1:52:
         71:3d:a8:7b:25:a4:68:d4:ce:43:cd:65:7f:9b:2f:aa:b4:e0:
         d2:cc:91:a6
-----BEGIN CERTIFICATE REQUEST-----
MIIC4zCCAcsCAQAwfzELMAkGA1UEBhMCVVMxCzAJBgNVBAgMAkNBMQ8wDQYDVQQH
DAZQb21vbmExDDAKBgNVBAoMA0NQUDEQMA4GA1UECwwHU3R1ZGVudDENMAsGA1UE
AwwEQnJhZDEjMCEGCSqGSIb3DQEJARYUYnJhZGpraW0wM0BnbWFpbC5jb20wggEi
MA0GCSqGSIb3DQEBAQUAA4IBDwAwggEKAoIBAQDNYog286CEcfnmgl+j95YQ8/N8
IV3lzzPsoHZJm00UrnjQIPIy0KaF38GpxO3tOsfOD1DkTLqo+2X4DJJrGEU6vUpx
UnavY9vtLkso9oApzL9/uyNHCxZq2WDKkw8rYmH6ubMMUzr2AaynjJi/CHzYVzM6
ah8RW8hmHVBA6/dCAT31HKVTmpQK3/AYF437E0N+hXI7IsxddPUnnHfWoBfQOF3P
obR0hX55jVZHlJAzHuW2JxuUcxBWt3OO4q7FiTXfHW4PD7RXWqtEdKX4fPFoAAIz
P3uA2mXNjC/t8MZu3WNgbuxKYSGiq28v5zPD0Paf2GPSSAaTP6x4UwFLZoOVAgMB
AAGgHzAdBgkqhkiG9w0BCQcxEAwOdG1wUGFzc3dvcmQ0MjEwDQYJKoZIhvcNAQEL
BQADggEBABfEoX6hfl1EYhGf6T++jnII2c5+rv3JUUqJr4+TXuvc1z6WcoCcZz9X
xZFs0XgDcOe295iMgCmfuVjoILYBWZz3lrdZ+WysZOOsn14ef25t8Yt64PlEPBU/
EyH3SnUkc92frXJU4DTR8nRn4eb/W9vty2uy9qy1h5U48BziIntKRuSiPlOOz9PH
rWvIm9ZUaof0pLK9K0u876BT0TPpz4yCd+1vg0CJs3FfTB8zKxkRPIjFj6hlbqUK
oPyoN/Fu0nFxqw7oYpKFbgyRhtgrELysWNHl5jB5iqdQj6wkXZi5uc8bsrvyeGzR
UnE9qHslpGjUzkPNZX+bL6q04NLMkaY=
-----END CERTIFICATE REQUEST-----
